; Function Attrs: mustprogress uwtable
define void @_ZN6icu_7517RuleBasedCollator14adoptTailoringEPNS_18CollationTailoringER10UErrorCode(ptr noundef nonnull align 8 dereferenceable(272) %this, ptr noundef %t, ptr nocapture noundef nonnull align 4 dereferenceable(4) %errorCode) local_unnamed_addr #1 align 2 personality ptr @__gxx_personality_v0 {
entry:
  %0 = load i32, ptr %errorCode, align 4
  %cmp.i = icmp slt i32 %0, 1
  br i1 %cmp.i, label %if.end, label %if.then

if.then:                                          ; preds = %entry
  tail call void @_ZNK6icu_7512SharedObject20deleteIfZeroRefCountEv(ptr noundef nonnull align 8 dereferenceable(24) %t)
  br label %return

if.end:                                           ; preds = %entry
  %call2 = tail call noundef ptr @_ZN6icu_757UMemorynwEm(i64 noundef 256) #17
  %new.isnull = icmp eq ptr %call2, null
  br i1 %new.isnull, label %if.then4, label %new.notnull

new.notnull:                                      ; preds = %if.end
  %actualLocale = getelementptr inbounds i8, ptr %t, i64 104
  %softRefCount.i.i = getelementptr inbounds i8, ptr %call2, i64 8
  tail call void @llvm.memset.p0.i64(ptr noundef nonnull align 8 dereferenceable(16) %softRefCount.i.i, i8 0, i64 16, i1 false)
  store ptr getelementptr inbounds ({ [5 x ptr] }, ptr @_ZTVN6icu_7519CollationCacheEntryE, i64 0, i32 0, i64 2), ptr %call2, align 8
  %validLocale.i = getelementptr inbounds i8, ptr %call2, i64 24
  invoke void @_ZN6icu_756LocaleC1ERKS0_(ptr noundef nonnull align 8 dereferenceable(217) %validLocale.i, ptr noundef nonnull align 8 dereferenceable(217) %actualLocale)
          to label %invoke.cont.i unwind label %lpad.i

invoke.cont.i:                                    ; preds = %new.notnull
  %tailoring.i = getelementptr inbounds i8, ptr %call2, i64 248
  store ptr %t, ptr %tailoring.i, align 8
  %cmp.not.i = icmp eq ptr %t, null
  br i1 %cmp.not.i, label %if.end5, label %if.then.i

if.then.i:                                        ; preds = %invoke.cont.i
  invoke void @_ZNK6icu_7512SharedObject6addRefEv(ptr noundef nonnull align 8 dereferenceable(24) %t)
          to label %if.end5 unwind label %lpad2.i

lpad.i:                                           ; preds = %new.notnull
  %1 = landingpad { ptr, i32 }
          cleanup
  br label %ehcleanup.i

lpad2.i:                                          ; preds = %if.then.i
  %2 = landingpad { ptr, i32 }
          cleanup
  tail call void @_ZN6icu_756LocaleD1Ev(ptr noundef nonnull align 8 dereferenceable(217) %validLocale.i) #17
  br label %ehcleanup.i

ehcleanup.i:                                      ; preds = %lpad2.i, %lpad.i
  %.pn.i = phi { ptr, i32 } [ %2, %lpad2.i ], [ %1, %lpad.i ]
  tail call void @_ZN6icu_7512SharedObjectD2Ev(ptr noundef nonnull align 8 dereferenceable(24) %call2) #17
  tail call void @_ZN6icu_757UMemorydlEPv(ptr noundef nonnull %call2) #17
  resume { ptr, i32 } %.pn.i

if.then4:                                         ; preds = %if.end
  %cacheEntry = getelementptr inbounds i8, ptr %this, i64 32
  store ptr null, ptr %cacheEntry, align 8
  store i32 7, ptr %errorCode, align 4
  tail call void @_ZNK6icu_7512SharedObject20deleteIfZeroRefCountEv(ptr noundef nonnull align 8 dereferenceable(24) %t)
  br label %return

if.end5:                                          ; preds = %invoke.cont.i, %if.then.i
  %cacheEntry9 = getelementptr inbounds i8, ptr %this, i64 32
  store ptr %call2, ptr %cacheEntry9, align 8
  %data = getelementptr inbounds i8, ptr %t, i64 24
  %3 = load ptr, ptr %data, align 8
  %data6 = getelementptr inbounds i8, ptr %this, i64 8
  store ptr %3, ptr %data6, align 8
  %settings = getelementptr inbounds i8, ptr %t, i64 32
  %4 = load ptr, ptr %settings, align 8
  %settings7 = getelementptr inbounds i8, ptr %this, i64 16
  store ptr %4, ptr %settings7, align 8
  tail call void @_ZNK6icu_7512SharedObject6addRefEv(ptr noundef nonnull align 8 dereferenceable(24) %4)
  %tailoring = getelementptr inbounds i8, ptr %this, i64 24
  store ptr %t, ptr %tailoring, align 8
  %5 = load ptr, ptr %cacheEntry9, align 8
  tail call void @_ZNK6icu_7512SharedObject6addRefEv(ptr noundef nonnull align 8 dereferenceable(24) %5)
  %validLocale = getelementptr inbounds i8, ptr %this, i64 40
  %call11 = tail call noundef nonnull align 8 dereferenceable(217) ptr @_ZN6icu_756LocaleaSERKS0_(ptr noundef nonnull align 8 dereferenceable(217) %validLocale, ptr noundef nonnull align 8 dereferenceable(217) %actualLocale)
  %actualLocaleIsSameAsValid = getelementptr inbounds i8, ptr %this, i64 268
  store i8 0, ptr %actualLocaleIsSameAsValid, align 4
  br label %return

return:                                           ; preds = %if.end5, %if.then4, %if.then
  ret void
}